target datalayout = "e-m:e-p270:32:32-p271:32:32-p272:64:64-i64:64-i128:128-f80:128-n8:16:32:64-S128"
target triple = "x86_64-pc-linux-gnu"

; Function Attrs: null_pointer_is_valid sspstrong uwtable
define internal zeroext i1 @dissect_lnet_ib_heur(ptr noundef %0, ptr noundef %1, ptr noundef %2, ptr noundef %3) #0 {
  %5 = alloca i1, align 1
  %6 = alloca ptr, align 8
  %7 = alloca ptr, align 8
  %8 = alloca ptr, align 8
  %9 = alloca ptr, align 8
  store ptr %0, ptr %6, align 8
  store ptr %1, ptr %7, align 8
  store ptr %2, ptr %8, align 8
  store ptr %3, ptr %9, align 8
  %10 = load ptr, ptr %6, align 8
  %11 = call i32 @tvb_captured_length(ptr noundef %10)
  %12 = icmp ult i32 %11, 4
  br i1 %12, label %17, label %13

13:                                               ; preds = %4
  %14 = load ptr, ptr %6, align 8
  %15 = call i32 @tvb_get_letohl(ptr noundef %14, i32 noundef 0)
  %16 = icmp ne i32 %15, 199826321
  br i1 %16, label %17, label %18

17:                                               ; preds = %13, %4
  store i1 false, ptr %5, align 1
  br label %23

18:                                               ; preds = %13
  %19 = load ptr, ptr %6, align 8
  %20 = load ptr, ptr %7, align 8
  %21 = load ptr, ptr %8, align 8
  %22 = call i32 @dissect_lnet_message(ptr noundef %19, ptr noundef %20, ptr noundef %21, ptr noundef inttoptr (i64 24 to ptr))
  store i1 true, ptr %5, align 1
  br label %23

23:                                               ; preds = %18, %17
  %24 = load i1, ptr %5, align 1
  ret i1 %24
}