; Function Attrs: null_pointer_is_valid sspstrong uwtable
define internal noundef zeroext i1 @dissect_lnet_ib_heur(ptr noundef %0, ptr noundef %1, ptr noundef %2, ptr readnone captures(none) %3) #0 {
  %5 = tail call i32 @tvb_captured_length(ptr noundef %0)
  %6 = icmp ult i32 %5, 4
  br i1 %6, label %11, label %7

7:                                                ; preds = %4
  %8 = tail call i32 @tvb_get_letohl(ptr noundef %0, i32 noundef 0)
  %.not = icmp eq i32 %8, 199826321
  br i1 %.not, label %9, label %11

9:                                                ; preds = %7
  %10 = tail call i32 @dissect_lnet_message(ptr noundef %0, ptr noundef %1, ptr noundef %2, ptr noundef nonnull inttoptr (i64 24 to ptr))
  br label %11

11:                                               ; preds = %4, %7, %9
  %.0 = phi i1 [ true, %9 ], [ false, %7 ], [ false, %4 ]
  ret i1 %.0
}